target datalayout = "e-m:e-p270:32:32-p271:32:32-p272:64:64-i64:64-i128:128-f80:128-n8:16:32:64-S128"
target triple = "x86_64-pc-linux-gnu"

; Function Attrs: mustprogress uwtable
define hidden noundef ptr @_ZN4cvc58internal4prop16SatSolverFactory13createCadicalERNS0_3EnvERNS0_18StatisticsRegistryEPNS0_15ResourceManagerERKNSt7__cxx1112basic_stringIcSt11char_traitsIcESaIcEEE(ptr noundef nonnull align 8 dereferenceable(696) %0, ptr noundef nonnull align 8 dereferenceable(58) %1, ptr noundef %2, ptr noundef nonnull align 8 dereferenceable(32) %3) #6 align 2 personality ptr @__gxx_personality_v0 {
  %5 = alloca ptr, align 8
  %6 = alloca ptr, align 8
  %7 = alloca ptr, align 8
  %8 = alloca ptr, align 8
  %9 = alloca ptr, align 8
  %10 = alloca ptr, align 8
  %11 = alloca i32, align 4
  store ptr %0, ptr %5, align 8, !tbaa !16
  store ptr %1, ptr %6, align 8, !tbaa !18
  store ptr %2, ptr %7, align 8, !tbaa !20
  store ptr %3, ptr %8, align 8, !tbaa !22
  call void @llvm.lifetime.start.p0(i64 8, ptr %9) #3
  %12 = call noalias noundef nonnull ptr @_Znwm(i64 noundef 192) #14
  %13 = load ptr, ptr %5, align 8, !tbaa !16
  %14 = load ptr, ptr %6, align 8, !tbaa !18
  %15 = load ptr, ptr %8, align 8, !tbaa !22
  invoke void @_ZN4cvc58internal4prop13CadicalSolverC1ERNS0_3EnvERNS0_18StatisticsRegistryERKNSt7__cxx1112basic_stringIcSt11char_traitsIcESaIcEEE(ptr noundef nonnull align 8 dereferenceable(192) %12, ptr noundef nonnull align 8 dereferenceable(696) %13, ptr noundef nonnull align 8 dereferenceable(58) %14, ptr noundef nonnull align 8 dereferenceable(32) %15)
          to label %16 unwind label %21

16:                                               ; preds = %4
  store ptr %12, ptr %9, align 8, !tbaa !30
  %17 = load ptr, ptr %9, align 8, !tbaa !30
  call void @_ZN4cvc58internal4prop13CadicalSolver4initEv(ptr noundef nonnull align 8 dereferenceable(192) %17)
  %18 = load ptr, ptr %9, align 8, !tbaa !30
  %19 = load ptr, ptr %7, align 8, !tbaa !20
  call void @_ZN4cvc58internal4prop13CadicalSolver16setResourceLimitEPNS0_15ResourceManagerE(ptr noundef nonnull align 8 dereferenceable(192) %18, ptr noundef %19)
  %20 = load ptr, ptr %9, align 8, !tbaa !30
  call void @llvm.lifetime.end.p0(i64 8, ptr %9) #3
  ret ptr %20

21:                                               ; preds = %4
  %22 = landingpad { ptr, i32 }
          cleanup
  %23 = extractvalue { ptr, i32 } %22, 0
  store ptr %23, ptr %10, align 8
  %24 = extractvalue { ptr, i32 } %22, 1
  store i32 %24, ptr %11, align 4
  call void @_ZdlPvm(ptr noundef %12, i64 noundef 192) #15
  call void @llvm.lifetime.end.p0(i64 8, ptr %9) #3
  br label %25

25:                                               ; preds = %21
  %26 = load ptr, ptr %10, align 8
  %27 = load i32, ptr %11, align 4
  %28 = insertvalue { ptr, i32 } poison, ptr %26, 0
  %29 = insertvalue { ptr, i32 } %28, i32 %27, 1
  resume { ptr, i32 } %29
}